target datalayout = "e-m:e-p270:32:32-p271:32:32-p272:64:64-i64:64-i128:128-f80:128-n8:16:32:64-S128"
target triple = "x86_64-pc-linux-gnu"

%"class.icu_77::MlBreakEngine" = type <{ ptr, %"class.icu_77::UnicodeSet", %"class.icu_77::UnicodeSet", [13 x %"class.icu_77::Hashtable"], i32, [4 x i8] }>
%"class.icu_77::UnicodeSet" = type <{ %"class.icu_77::UnicodeFilter", ptr, i32, i32, i8, [7 x i8], ptr, ptr, i32, [4 x i8], ptr, i32, [4 x i8], ptr, ptr, [25 x i32], [4 x i8] }>
%"class.icu_77::UnicodeFilter" = type { %"class.icu_77::UnicodeFunctor", %"class.icu_77::UnicodeMatcher" }
%"class.icu_77::UnicodeFunctor" = type { %"class.icu_77::UObject" }
%"class.icu_77::UObject" = type { ptr }
%"class.icu_77::UnicodeMatcher" = type { ptr }
%"class.icu_77::Hashtable" = type { ptr, %struct.UHashtable }
%struct.UHashtable = type { ptr, ptr, ptr, ptr, ptr, ptr, i32, i32, i32, i32, float, float, i8, i8 }

@_ZTVN6icu_7713MlBreakEngineE = unnamed_addr constant { [4 x ptr] } { [4 x ptr] [ptr null, ptr @_ZTIN6icu_7713MlBreakEngineE, ptr @_ZN6icu_7713MlBreakEngineD1Ev, ptr @_ZN6icu_7713MlBreakEngineD0Ev] }, align 8

; Function Attrs: inlinehint mustprogress nounwind uwtable
define linkonce_odr void @_ZN6icu_779HashtableD2Ev(ptr noundef nonnull align 8 dereferenceable(88) %0) unnamed_addr #2 comdat align 2 personality ptr @__gxx_personality_v0 {
  %2 = alloca ptr, align 8
  store ptr %0, ptr %2, align 8, !tbaa !40
  %3 = load ptr, ptr %2, align 8
  %4 = getelementptr inbounds nuw %"class.icu_77::Hashtable", ptr %3, i32 0, i32 0
  %5 = load ptr, ptr %4, align 8, !tbaa !42
  %6 = icmp ne ptr %5, null
  br i1 %6, label %7, label %11

7:                                                ; preds = %1
  %8 = getelementptr inbounds nuw %"class.icu_77::Hashtable", ptr %3, i32 0, i32 0
  %9 = load ptr, ptr %8, align 8, !tbaa !42
  invoke void @uhash_close_77(ptr noundef %9)
          to label %10 unwind label %12

10:                                               ; preds = %7
  br label %11

11:                                               ; preds = %10, %1
  ret void

12:                                               ; preds = %7
  %13 = landingpad { ptr, i32 }
          catch ptr null
  %14 = extractvalue { ptr, i32 } %13, 0
  call void @__clang_call_terminate(ptr %14) #13
  unreachable
}

; Function Attrs: mustprogress nounwind uwtable
define void @_ZN6icu_7713MlBreakEngineD2Ev(ptr noundef nonnull align 8 dereferenceable(1556) %0) unnamed_addr #0 align 2 {
  %2 = alloca ptr, align 8
  store ptr %0, ptr %2, align 8, !tbaa !23
  %3 = load ptr, ptr %2, align 8
  store ptr getelementptr inbounds inrange(-16, 16) ({ [4 x ptr] }, ptr @_ZTVN6icu_7713MlBreakEngineE, i32 0, i32 0, i32 2), ptr %3, align 8, !tbaa !27
  %4 = getelementptr inbounds nuw %"class.icu_77::MlBreakEngine", ptr %3, i32 0, i32 3
  %5 = getelementptr inbounds [13 x %"class.icu_77::Hashtable"], ptr %4, i32 0, i32 0
  %6 = getelementptr inbounds %"class.icu_77::Hashtable", ptr %5, i64 13
  br label %7

7:                                                ; preds = %7, %1
  %8 = phi ptr [ %6, %1 ], [ %9, %7 ]
  %9 = getelementptr inbounds %"class.icu_77::Hashtable", ptr %8, i64 -1
  call void @_ZN6icu_779HashtableD2Ev(ptr noundef nonnull align 8 dereferenceable(88) %9) #11
  %10 = icmp eq ptr %9, %5
  br i1 %10, label %11, label %7

11:                                               ; preds = %7
  %12 = getelementptr inbounds nuw %"class.icu_77::MlBreakEngine", ptr %3, i32 0, i32 2
  call void @_ZN6icu_7710UnicodeSetD1Ev(ptr noundef nonnull align 8 dereferenceable(200) %12) #11
  %13 = getelementptr inbounds nuw %"class.icu_77::MlBreakEngine", ptr %3, i32 0, i32 1
  call void @_ZN6icu_7710UnicodeSetD1Ev(ptr noundef nonnull align 8 dereferenceable(200) %13) #11
  ret void
}