; Function Attrs: mustprogress nounwind uwtable
define void @_ZN6icu_7713MlBreakEngineD2Ev(ptr noundef nonnull align 8 dereferenceable(1556) initializes((0, 8)) %0) unnamed_addr #0 align 2 personality ptr @__gxx_personality_v0 {
  store ptr getelementptr inbounds nuw inrange(-16, 16) (i8, ptr @_ZTVN6icu_7713MlBreakEngineE, i64 16), ptr %0, align 8, !tbaa !15
  br label %2

2:                                                ; preds = %_ZN6icu_779HashtableD2Ev.exit, %1
  %.idx = phi i64 [ 1552, %1 ], [ %.add, %_ZN6icu_779HashtableD2Ev.exit ]
  %.add = add nsw i64 %.idx, -88
  %.ptr1 = getelementptr inbounds i8, ptr %0, i64 %.add
  %3 = load ptr, ptr %.ptr1, align 8, !tbaa !17
  %.not.i = icmp eq ptr %3, null
  br i1 %.not.i, label %_ZN6icu_779HashtableD2Ev.exit, label %4

4:                                                ; preds = %2
  invoke void @uhash_close_77(ptr noundef nonnull %3)
          to label %_ZN6icu_779HashtableD2Ev.exit unwind label %5

5:                                                ; preds = %4
  %6 = landingpad { ptr, i32 }
          catch ptr null
  %7 = extractvalue { ptr, i32 } %6, 0
  tail call void @__clang_call_terminate(ptr %7) #15
  unreachable

_ZN6icu_779HashtableD2Ev.exit:                    ; preds = %2, %4
  %8 = icmp eq i64 %.add, 408
  br i1 %8, label %9, label %2

9:                                                ; preds = %_ZN6icu_779HashtableD2Ev.exit
  %10 = getelementptr inbounds nuw i8, ptr %0, i64 208
  tail call void @_ZN6icu_7710UnicodeSetD1Ev(ptr noundef nonnull align 8 dereferenceable(200) %10) #13
  %11 = getelementptr inbounds nuw i8, ptr %0, i64 8
  tail call void @_ZN6icu_7710UnicodeSetD1Ev(ptr noundef nonnull align 8 dereferenceable(200) %11) #13
  ret void
}